target datalayout = "e-m:e-p270:32:32-p271:32:32-p272:64:64-i64:64-i128:128-f80:128-n8:16:32:64-S128"
target triple = "x86_64-pc-linux-gnu"

; Function Attrs: nounwind uwtable
define void @minimalInitialFlip_fast_16Vars(ptr noundef %0, i32 noundef %1, ptr noundef %2) #0 {
  %4 = alloca ptr, align 8
  %5 = alloca i32, align 4
  %6 = alloca ptr, align 8
  %7 = alloca i64, align 8
  store ptr %0, ptr %4, align 8, !tbaa !3
  store i32 %1, ptr %5, align 4, !tbaa !8
  store ptr %2, ptr %6, align 8, !tbaa !12
  call void @llvm.lifetime.start.p0(i64 8, ptr %7) #7
  store i64 1, ptr %7, align 8, !tbaa !18
  %8 = load ptr, ptr %4, align 8, !tbaa !3
  %9 = load i32, ptr %5, align 4, !tbaa !8
  %10 = call i32 @Kit_TruthWordNum_64bit(i32 noundef %9)
  %11 = sub nsw i32 %10, 1
  %12 = sext i32 %11 to i64
  %13 = getelementptr inbounds i64, ptr %8, i64 %12
  %14 = load i64, ptr %13, align 8, !tbaa !18
  %15 = lshr i64 %14, 63
  %16 = load i64, ptr %7, align 8, !tbaa !18
  %17 = and i64 %15, %16
  %18 = icmp ne i64 %17, 0
  br i1 %18, label %19, label %27

19:                                               ; preds = %3
  %20 = load ptr, ptr %4, align 8, !tbaa !3
  %21 = load i32, ptr %5, align 4, !tbaa !8
  call void @Kit_TruthNot_64bit(ptr noundef %20, i32 noundef %21)
  %22 = load i32, ptr %5, align 4, !tbaa !8
  %23 = shl i32 1, %22
  %24 = load ptr, ptr %6, align 8, !tbaa !12
  %25 = load i32, ptr %24, align 4, !tbaa !8
  %26 = xor i32 %25, %23
  store i32 %26, ptr %24, align 4, !tbaa !8
  br label %27

27:                                               ; preds = %19, %3
  call void @llvm.lifetime.end.p0(i64 8, ptr %7) #7
  ret void
}