; Function Attrs: nounwind uwtable
define void @minimalInitialFlip_fast_16Vars(ptr noundef %0, i32 noundef %1, ptr noundef captures(none) %2) local_unnamed_addr #0 {
  %4 = tail call i32 @Kit_TruthWordNum_64bit(i32 noundef %1) #9
  %5 = sext i32 %4 to i64
  %6 = getelementptr i64, ptr %0, i64 %5
  %7 = getelementptr i8, ptr %6, i64 -8
  %8 = load i64, ptr %7, align 8, !tbaa !11
  %.not = icmp sgt i64 %8, -1
  br i1 %.not, label %13, label %9

9:                                                ; preds = %3
  tail call void @Kit_TruthNot_64bit(ptr noundef nonnull %0, i32 noundef %1) #9
  %10 = shl nuw i32 1, %1
  %11 = load i32, ptr %2, align 4, !tbaa !6
  %12 = xor i32 %11, %10
  store i32 %12, ptr %2, align 4, !tbaa !6
  br label %13

13:                                               ; preds = %9, %3
  ret void
}